; Function Attrs: mustprogress uwtable
define void @_ZN4toml2v35array14insert_at_backEOSt10unique_ptrINS0_4nodeESt14default_deleteIS3_EE(ptr noundef nonnull align 8 dereferenceable(64) %0, ptr noundef nonnull align 8 dereferenceable(8) %1) local_unnamed_addr #0 align 2 {
  %3 = getelementptr inbounds nuw i8, ptr %0, i64 48
  %4 = load ptr, ptr %3, align 8, !tbaa !175
  %5 = getelementptr inbounds nuw i8, ptr %0, i64 56
  %6 = load ptr, ptr %5, align 8, !tbaa !220
  %.not.i.i = icmp eq ptr %4, %6
  br i1 %.not.i.i, label %10, label %7

7:                                                ; preds = %2
  %8 = load i64, ptr %1, align 8, !tbaa !178
  store i64 %8, ptr %4, align 8, !tbaa !178
  store ptr null, ptr %1, align 8, !tbaa !178
  %9 = getelementptr inbounds nuw i8, ptr %4, i64 8
  store ptr %9, ptr %3, align 8, !tbaa !175
  br label %_ZNSt6vectorISt10unique_ptrIN4toml2v34nodeESt14default_deleteIS3_EESaIS6_EE9push_backEOS6_.exit

10:                                               ; preds = %2
  %11 = getelementptr inbounds nuw i8, ptr %0, i64 40
  tail call void @_ZNSt6vectorISt10unique_ptrIN4toml2v34nodeESt14default_deleteIS3_EESaIS6_EE17_M_realloc_insertIJS6_EEEvN9__gnu_cxx17__normal_iteratorIPS6_S8_EEDpOT_(ptr noundef nonnull align 8 dereferenceable(24) %11, ptr %4, ptr noundef nonnull align 8 dereferenceable(8) %1)
  br label %_ZNSt6vectorISt10unique_ptrIN4toml2v34nodeESt14default_deleteIS3_EESaIS6_EE9push_backEOS6_.exit

_ZNSt6vectorISt10unique_ptrIN4toml2v34nodeESt14default_deleteIS3_EESaIS6_EE9push_backEOS6_.exit: ; preds = %7, %10
  ret void
}